target datalayout = "e-m:e-p270:32:32-p271:32:32-p272:64:64-i64:64-i128:128-f80:128-n8:16:32:64-S128"
target triple = "x86_64-pc-linux-gnu"

%"struct.faiss::InvertedLists" = type <{ ptr, i64, i64, i8, [7 x i8] }>

; Function Attrs: mustprogress uwtable
define void @_ZN5faiss13InvertedLists5resetEv(ptr noundef nonnull align 8 dereferenceable(25) %0) unnamed_addr #2 align 2 {
  %2 = alloca ptr, align 8
  %3 = alloca i64, align 8
  store ptr %0, ptr %2, align 8, !tbaa !9
  %4 = load ptr, ptr %2, align 8
  call void @llvm.lifetime.start.p0(i64 8, ptr %3) #6
  store i64 0, ptr %3, align 8, !tbaa !11
  br label %5

5:                                                ; preds = %16, %1
  %6 = load i64, ptr %3, align 8, !tbaa !11
  %7 = getelementptr inbounds nuw %"struct.faiss::InvertedLists", ptr %4, i32 0, i32 1
  %8 = load i64, ptr %7, align 8, !tbaa !28
  %9 = icmp ult i64 %6, %8
  br i1 %9, label %11, label %10

10:                                               ; preds = %5
  call void @llvm.lifetime.end.p0(i64 8, ptr %3) #6
  br label %19

11:                                               ; preds = %5
  %12 = load i64, ptr %3, align 8, !tbaa !11
  %13 = load ptr, ptr %4, align 8, !tbaa !17
  %14 = getelementptr inbounds ptr, ptr %13, i64 16
  %15 = load ptr, ptr %14, align 8
  call void %15(ptr noundef nonnull align 8 dereferenceable(25) %4, i64 noundef %12, i64 noundef 0)
  br label %16

16:                                               ; preds = %11
  %17 = load i64, ptr %3, align 8, !tbaa !11
  %18 = add i64 %17, 1
  store i64 %18, ptr %3, align 8, !tbaa !11
  br label %5, !llvm.loop !29

19:                                               ; preds = %10
  ret void
}