; Function Attrs: mustprogress uwtable
define void @_ZN5faiss13InvertedLists5resetEv(ptr noundef nonnull align 8 dereferenceable(25) %0) unnamed_addr #2 align 2 {
  %2 = getelementptr inbounds nuw i8, ptr %0, i64 8
  %3 = load i64, ptr %2, align 8, !tbaa !39
  %.not = icmp eq i64 %3, 0
  br i1 %.not, label %._crit_edge, label %.lr.ph

._crit_edge:                                      ; preds = %.lr.ph, %1
  ret void

.lr.ph:                                           ; preds = %1, %.lr.ph
  %.03 = phi i64 [ %7, %.lr.ph ], [ 0, %1 ]
  %4 = load ptr, ptr %0, align 8, !tbaa !4
  %5 = getelementptr inbounds nuw i8, ptr %4, i64 128
  %6 = load ptr, ptr %5, align 8
  tail call void %6(ptr noundef nonnull align 8 dereferenceable(25) %0, i64 noundef %.03, i64 noundef 0)
  %7 = add nuw i64 %.03, 1
  %8 = load i64, ptr %2, align 8, !tbaa !39
  %9 = icmp ult i64 %7, %8
  br i1 %9, label %.lr.ph, label %._crit_edge, !llvm.loop !40
}